(dp1
(I1
I3
tp2
F4.2019624789092023e-05
s(I3
I0
tp3
F0.0017621244376382413
s(I2
I1
tp4
F1.4370587423605612e-06
s(I0
I3
tp5
F0.0018752056416091972
s(I4
I0
tp6
F4.3674755312171595e-05
s(I1
I2
tp7
F0.00080124576666887565
s(I3
I3
tp8
F8.7067936535250255e-05
s(I4
I4
tp9
F2.9071801837407642e-05
s(I2
I2
tp10
F0.0013130720394150923
s(I4
I1
tp11
F0.00074285364911230365
s(I1
I1
tp12
F0.0010343815757406481
s(I3
I2
tp13
F0.0014184060085703578
s(I0
I0
tp14
F2.8396175347651896e-05
s(I0
I4
tp15
F2.0017170693270121e-05
s(I1
I4
tp16
F7.9745676738706024e-05
s(I2
I3
tp17
F0.00010373625674495217
s(I4
I2
tp18
F0.003653473995510915
s(I1
I0
tp19
F1.908772700079794e-05
s(I0
I1
tp20
F3.9564706774465138e-06
s(I3
I1
tp21
F9.6360866617979446e-07
s(I2
I4
tp22
F0.0019017750464912192
s(I2
I0
tp23
F3.130684717852548e-05
s(I4
I3
tp24
F2.6087291981659824e-05
s(I3
I4
tp25
F3.9335325862528661e-05
s(I0
I2
tp26
F0.0010171046881411933
s.